target datalayout = "e-m:e-p270:32:32-p271:32:32-p272:64:64-i64:64-i128:128-f80:128-n8:16:32:64-S128"
target triple = "x86_64-pc-linux-gnu"

@.str.11 = private unnamed_addr constant [5 x i8] c"NONE\00", align 1
@.str.12 = private unnamed_addr constant [5 x i8] c"SCTP\00", align 1
@.str.13 = private unnamed_addr constant [4 x i8] c"TCP\00", align 1
@.str.14 = private unnamed_addr constant [4 x i8] c"UDP\00", align 1
@.str.15 = private unnamed_addr constant [5 x i8] c"DCCP\00", align 1
@.str.16 = private unnamed_addr constant [4 x i8] c"IPX\00", align 1
@.str.17 = private unnamed_addr constant [4 x i8] c"DDP\00", align 1
@.str.18 = private unnamed_addr constant [4 x i8] c"IDP\00", align 1
@.str.19 = private unnamed_addr constant [4 x i8] c"USB\00", align 1
@.str.20 = private unnamed_addr constant [4 x i8] c"I2C\00", align 1
@.str.21 = private unnamed_addr constant [5 x i8] c"IBQP\00", align 1
@.str.22 = private unnamed_addr constant [10 x i8] c"BLUETOOTH\00", align 1
@.str.23 = private unnamed_addr constant [10 x i8] c"IWARP_MPA\00", align 1
@.str.24 = private unnamed_addr constant [10 x i8] c"[Unknown]\00", align 1

; Function Attrs: nounwind null_pointer_is_valid sspstrong uwtable
define ptr @port_type_to_str(i32 noundef %0) #3 {
  %2 = alloca ptr, align 8
  %3 = alloca i32, align 4
  store i32 %0, ptr %3, align 4
  %4 = load i32, ptr %3, align 4
  switch i32 %4, label %18 [
    i32 0, label %5
    i32 1, label %6
    i32 2, label %7
    i32 3, label %8
    i32 4, label %9
    i32 5, label %10
    i32 6, label %11
    i32 7, label %12
    i32 8, label %13
    i32 9, label %14
    i32 10, label %15
    i32 11, label %16
    i32 12, label %17
  ]

5:                                                ; preds = %1
  store ptr @.str.11, ptr %2, align 8
  br label %19

6:                                                ; preds = %1
  store ptr @.str.12, ptr %2, align 8
  br label %19

7:                                                ; preds = %1
  store ptr @.str.13, ptr %2, align 8
  br label %19

8:                                                ; preds = %1
  store ptr @.str.14, ptr %2, align 8
  br label %19

9:                                                ; preds = %1
  store ptr @.str.15, ptr %2, align 8
  br label %19

10:                                               ; preds = %1
  store ptr @.str.16, ptr %2, align 8
  br label %19

11:                                               ; preds = %1
  store ptr @.str.17, ptr %2, align 8
  br label %19

12:                                               ; preds = %1
  store ptr @.str.18, ptr %2, align 8
  br label %19

13:                                               ; preds = %1
  store ptr @.str.19, ptr %2, align 8
  br label %19

14:                                               ; preds = %1
  store ptr @.str.20, ptr %2, align 8
  br label %19

15:                                               ; preds = %1
  store ptr @.str.21, ptr %2, align 8
  br label %19

16:                                               ; preds = %1
  store ptr @.str.22, ptr %2, align 8
  br label %19

17:                                               ; preds = %1
  store ptr @.str.23, ptr %2, align 8
  br label %19

18:                                               ; preds = %1
  store ptr @.str.24, ptr %2, align 8
  br label %19

19:                                               ; preds = %18, %17, %16, %15, %14, %13, %12, %11, %10, %9, %8, %7, %6, %5
  %20 = load ptr, ptr %2, align 8
  ret ptr %20
}