; Function Attrs: mustprogress nofree norecurse nosync nounwind null_pointer_is_valid sspstrong willreturn memory(none) uwtable
define noundef nonnull ptr @port_type_to_str(i32 noundef %0) local_unnamed_addr #6 {
  %2 = icmp ult i32 %0, 13
  br i1 %2, label %switch.lookup, label %4

switch.lookup:                                    ; preds = %1
  %3 = zext nneg i32 %0 to i64
  %switch.gep = getelementptr inbounds nuw [13 x ptr], ptr @switch.table.port_type_to_str, i64 0, i64 %3
  %switch.load = load ptr, ptr %switch.gep, align 8
  br label %4

4:                                                ; preds = %1, %switch.lookup
  %.0 = phi ptr [ %switch.load, %switch.lookup ], [ @.str.24, %1 ]
  ret ptr %.0
}